; Function Attrs: mustprogress nofree norecurse nosync nounwind willreturn memory(read, inaccessiblemem: none) uwtable
define hidden noundef zeroext i1 @_ZNK4llvh23ItaniumPartialDemangler21hasFunctionQualifiersEv(ptr nocapture noundef nonnull readonly align 8 dereferenceable(16) %this) local_unnamed_addr #0 align 2 {
entry:
  %0 = load ptr, ptr %this, align 8
  %K.i.i = getelementptr inbounds i8, ptr %0, i64 8
  %1 = load i8, ptr %K.i.i, align 8
  %cmp.i = icmp eq i8 %1, 18
  br i1 %cmp.i, label %if.end, label %return

if.end:                                           ; preds = %entry
  %CVQuals.i = getelementptr inbounds i8, ptr %0, i64 56
  %2 = load i32, ptr %CVQuals.i, align 8
  %cmp.not = icmp eq i32 %2, 0
  br i1 %cmp.not, label %lor.rhs, label %return

lor.rhs:                                          ; preds = %if.end
  %RefQual.i = getelementptr inbounds i8, ptr %0, i64 60
  %3 = load i8, ptr %RefQual.i, align 4
  %cmp4 = icmp ne i8 %3, 0
  br label %return

return:                                           ; preds = %if.end, %lor.rhs, %entry
  %retval.0 = phi i1 [ false, %entry ], [ true, %if.end ], [ %cmp4, %lor.rhs ]
  ret i1 %retval.0
}